Certificate:
    Data:
        Version: 3 (0x2)
        Serial Number: 1 (0x1)
        Signature Algorithm: sha256WithRSAEncryption
        Issuer: C=CN, ST=shenzhen, O=EMQ, CN=RootCA
        Validity
            Not Before: Feb 22 06:52:22 2023 GMT
            Not After : Feb 22 06:52:22 2024 GMT
        Subject: C=CN, ST=shenzhen, O=EMQ, CN=Server
        Subject Public Key Info:
            Public Key Algorithm: rsaEncryption
                RSA Public-Key: (2048 bit)
                Modulus:
                    00:b1:00:2d:11:8b:09:ff:6a:21:c0:38:fd:57:93:
                    68:7d:a2:4c:10:9c:e8:b6:b3:7f:ee:b7:70:07:dc:
                    05:36:37:c7:3e:2f:a4:ef:c4:fe:aa:5c:08:dc:f7:
                    82:ae:f3:12:3f:2d:f5:23:8d:31:54:df:c2:73:4a:
                    54:cf:6c:03:57:f1:d9:62:f2:fb:35:3b:1a:48:96:
                    3a:e8:64:0d:52:6d:c3:3d:b2:29:f4:b1:dc:b6:f5:
                    be:21:ea:69:93:50:23:0c:85:02:c1:a6:66:ff:58:
                    64:6e:8f:cc:d1:46:4f:37:7c:55:4b:34:77:c4:8a:
                    3f:d1:74:4e:f3:be:68:af:e3:15:36:14:f1:7f:99:
                    a3:b8:0c:96:f4:12:b3:ef:bb:35:fb:d8:54:3a:d4:
                    d6:19:c8:df:72:ab:89:63:f9:c9:a2:f6:9d:60:8f:
                    f5:6f:90:bb:d8:b1:6c:97:00:9f:10:80:f2:c2:f6:
                    62:01:9d:9a:84:e3:c2:e3:47:1b:65:1c:86:57:77:
                    4f:ec:15:cb:ce:b6:26:42:a6:a1:40:74:b1:c1:ee:
                    e2:73:36:de:f2:70:26:5d:ff:dc:a3:86:6b:90:22:
                    3b:94:43:50:48:1a:ea:e4:49:3c:c7:db:79:76:77:
                    23:b0:4b:9e:3c:8b:56:4a:4a:20:10:08:32:4c:00:
                    5b:75
                Exponent: 65537 (0x10001)
        X509v3 extensions:
            X509v3 Basic Constraints: 
                CA:FALSE
            X509v3 Key Usage: 
                Digital Signature, Non Repudiation, Key Encipherment
    Signature Algorithm: sha256WithRSAEncryption
         84:d4:a3:89:09:a1:84:38:b8:9c:0b:82:a3:6e:f7:ac:c1:9e:
         4c:3f:90:29:4d:ba:07:34:29:14:b7:3f:a8:dc:0b:f3:6d:0b:
         87:1d:e5:a8:26:50:c7:fb:8b:2d:6b:b2:ab:31:79:7c:c1:13:
         95:60:ad:7c:c8:ca:a2:b4:c0:b1:57:0e:63:8a:20:1c:79:27:
         f5:87:db:29:d7:d7:9e:c3:1e:00:dc:b2:8e:9c:77:77:be:62:
         fb:d3:56:74:ee:bd:89:aa:48:36:33:7e:39:a4:52:f3:2c:b9:
         fd:dc:ba:c3:e3:0b:57:10:6f:d5:e5:a8:4b:f3:d0:e1:49:3a:
         d3:57:12:de:23:fd:98:fb:a9:dd:f6:76:dd:f3:5b:fa:fc:6a:
         6c:66:88:65:25:a3:5d:0d:1a:49:20:15:82:2f:0e:0a:22:f4:
         6d:bc:f5:6a:fe:61:71:5c:3e:fb:ac:90:97:68:4f:fb:ed:b8:
         fc:a3:84:f7:f3:58:81:18:e6:09:ea:e1:ba:f7:2a:df:87:ec:
         c7:f3:67:c8:6c:05:90:9a:b1:55:89:88:d5:5a:15:5b:d8:29:
         06:58:f7:10:ba:84:94:84:4c:7b:96:bd:ed:5b:6b:03:56:4c:
         c4:d5:1d:2b:81:5a:dc:13:48:af:5e:6b:9b:93:57:31:26:99:
         5e:78:14:8a
-----BEGIN CERTIFICATE-----
MIIDEzCCAfugAwIBAgIBATANBgkqhkiG9w0BAQsFADA/MQswCQYDVQQGEwJDTjER
MA8GA1UECAwIc2hlbnpoZW4xDDAKBgNVBAoMA0VNUTEPMA0GA1UEAwwGUm9vdENB
MB4XDTIzMDIyMjA2NTIyMloXDTI0MDIyMjA2NTIyMlowPzELMAkGA1UEBhMCQ04x
ETAPBgNVBAgMCHNoZW56aGVuMQwwCgYDVQQKDANFTVExDzANBgNVBAMMBlNlcnZl
cjCCASIwDQYJKoZIhvcNAQEBBQADggEPADCCAQoCggEBALEALRGLCf9qIcA4/VeT
aH2iTBCc6Lazf+63cAfcBTY3xz4vpO/E/qpcCNz3gq7zEj8t9SONMVTfwnNKVM9s
A1fx2WLy+zU7GkiWOuhkDVJtwz2yKfSx3Lb1viHqaZNQIwyFAsGmZv9YZG6PzNFG
Tzd8VUs0d8SKP9F0TvO+aK/jFTYU8X+Zo7gMlvQSs++7NfvYVDrU1hnI33KriWP5
yaL2nWCP9W+Qu9ixbJcAnxCA8sL2YgGdmoTjwuNHG2Uchld3T+wVy862JkKmoUB0
scHu4nM23vJwJl3/3KOGa5AiO5RDUEga6uRJPMfbeXZ3I7BLnjyLVkpKIBAIMkwA
W3UCAwEAAaMaMBgwCQYDVR0TBAIwADALBgNVHQ8EBAMCBeAwDQYJKoZIhvcNAQEL
BQADggEBAITUo4kJoYQ4uJwLgqNu96zBnkw/kClNugc0KRS3P6jcC/NtC4cd5agm
UMf7iy1rsqsxeXzBE5VgrXzIyqK0wLFXDmOKIBx5J/WH2ynX157DHgDcso6cd3e+
YvvTVnTuvYmqSDYzfjmkUvMsuf3cusPjC1cQb9XlqEvz0OFJOtNXEt4j/Zj7qd32
dt3zW/r8amxmiGUlo10NGkkgFYIvDgoi9G289Wr+YXFcPvuskJdoT/vtuPyjhPfz
WIEY5gnq4br3Kt+H7MfzZ8hsBZCasVWJiNVaFVvYKQZY9xC6hJSETHuWve1bawNW
TMTVHSuBWtwTSK9ea5uTVzEmmV54FIo=
-----END CERTIFICATE-----
