Certificate:
    Data:
        Version: 3 (0x2)
        Serial Number: 2 (0x2)
        Signature Algorithm: sha256WithRSAEncryption
        Issuer: C=CN, ST=shenzhen, O=EMQ, CN=RootCA
        Validity
            Not Before: Feb 22 06:55:48 2023 GMT
            Not After : Feb 22 06:55:48 2024 GMT
        Subject: C=CN, ST=shenzhen, O=EMQ, CN=Client
        Subject Public Key Info:
            Public Key Algorithm: rsaEncryption
                RSA Public-Key: (2048 bit)
                Modulus:
                    00:a9:5a:2a:45:95:38:36:8c:5d:01:d8:38:0c:7e:
                    92:e7:8c:cf:c2:92:bf:3d:8e:28:db:eb:3d:1a:42:
                    19:5d:af:2b:e9:6e:00:49:d8:d9:71:85:2b:07:59:
                    eb:03:58:bb:64:15:0a:10:e5:8c:c4:fd:4c:21:cf:
                    76:86:e0:f9:5a:ad:50:9c:32:c7:e4:d0:bc:7e:53:
                    ad:df:84:9c:58:ba:4c:69:89:a2:8e:db:60:52:bb:
                    10:dd:17:82:f8:7c:1c:8a:b6:b4:c2:34:16:ee:82:
                    ee:5a:84:ba:a7:d5:2c:55:45:71:0a:3f:5f:90:ae:
                    c1:1f:2e:14:0a:fe:85:d5:15:eb:30:39:bd:6d:77:
                    62:69:f3:24:46:94:86:35:2d:c9:30:b4:bc:f5:bd:
                    bf:47:c3:13:87:32:a4:55:9f:9e:55:d7:1c:a5:53:
                    3f:ac:12:01:04:5e:6b:6b:9f:8b:aa:55:e8:a2:da:
                    39:8d:1e:81:47:db:e1:bc:d0:ae:3c:74:25:22:f9:
                    a1:a3:62:ce:af:fd:af:10:dc:c2:01:8d:20:9e:3d:
                    ab:6f:27:54:1d:53:9f:56:5d:2a:f0:46:bc:ee:c0:
                    6d:0c:c8:43:ba:64:61:7e:27:16:0b:3e:c6:91:3d:
                    2d:18:42:24:56:ef:24:8c:2f:a2:fa:3c:de:23:cc:
                    b8:b7
                Exponent: 65537 (0x10001)
        X509v3 extensions:
            X509v3 Basic Constraints: 
                CA:FALSE
            X509v3 Key Usage: 
                Digital Signature, Non Repudiation, Key Encipherment
    Signature Algorithm: sha256WithRSAEncryption
         23:7c:ef:52:4f:0f:cc:0a:4e:8a:ce:2a:eb:9b:c5:cb:7f:2d:
         4a:10:e4:d1:97:b8:c0:ea:61:14:e5:71:b5:99:01:7f:de:9d:
         68:f4:e2:77:d7:d8:03:86:f8:49:a4:2a:5d:c1:e4:4c:b5:6b:
         36:9b:d0:f1:0e:e4:09:ee:98:8c:ee:91:93:54:5c:2f:ad:3d:
         cc:56:7a:cb:e8:cc:ba:98:35:99:c4:d0:2c:e2:9a:82:97:a4:
         89:f2:9b:b5:cb:33:39:03:55:9a:c0:d5:89:34:63:c9:e4:c8:
         6b:3a:ec:79:19:67:2e:9e:c9:e8:27:5e:70:33:ad:de:08:ff:
         f5:73:31:9f:30:f6:a6:36:cf:ac:47:f7:28:7e:b9:26:ab:60:
         37:19:15:cc:d9:eb:86:b0:7b:0d:4b:c0:6c:06:2c:7d:79:30:
         01:13:d3:ba:d9:89:b5:6d:4c:9d:e5:32:62:55:6a:70:ca:6e:
         41:50:c4:35:b4:69:d3:4f:8e:82:b7:49:d2:1c:a2:a4:0d:2c:
         29:7e:a0:2b:e4:a4:45:c3:1e:93:87:71:e1:38:f8:aa:5c:8e:
         c3:80:a7:1e:0c:80:16:2d:44:b6:81:62:a2:62:ba:34:3f:3c:
         ce:91:cc:57:24:5a:37:be:8a:c5:4c:c7:62:83:89:37:48:84:
         f9:66:d4:5f
-----BEGIN CERTIFICATE-----
MIIDEzCCAfugAwIBAgIBAjANBgkqhkiG9w0BAQsFADA/MQswCQYDVQQGEwJDTjER
MA8GA1UECAwIc2hlbnpoZW4xDDAKBgNVBAoMA0VNUTEPMA0GA1UEAwwGUm9vdENB
MB4XDTIzMDIyMjA2NTU0OFoXDTI0MDIyMjA2NTU0OFowPzELMAkGA1UEBhMCQ04x
ETAPBgNVBAgMCHNoZW56aGVuMQwwCgYDVQQKDANFTVExDzANBgNVBAMMBkNsaWVu
dDCCASIwDQYJKoZIhvcNAQEBBQADggEPADCCAQoCggEBAKlaKkWVODaMXQHYOAx+
kueMz8KSvz2OKNvrPRpCGV2vK+luAEnY2XGFKwdZ6wNYu2QVChDljMT9TCHPdobg
+VqtUJwyx+TQvH5Trd+EnFi6TGmJoo7bYFK7EN0Xgvh8HIq2tMI0Fu6C7lqEuqfV
LFVFcQo/X5CuwR8uFAr+hdUV6zA5vW13YmnzJEaUhjUtyTC0vPW9v0fDE4cypFWf
nlXXHKVTP6wSAQRea2ufi6pV6KLaOY0egUfb4bzQrjx0JSL5oaNizq/9rxDcwgGN
IJ49q28nVB1Tn1ZdKvBGvO7AbQzIQ7pkYX4nFgs+xpE9LRhCJFbvJIwvovo83iPM
uLcCAwEAAaMaMBgwCQYDVR0TBAIwADALBgNVHQ8EBAMCBeAwDQYJKoZIhvcNAQEL
BQADggEBACN871JPD8wKTorOKuubxct/LUoQ5NGXuMDqYRTlcbWZAX/enWj04nfX
2AOG+EmkKl3B5Ey1azab0PEO5AnumIzukZNUXC+tPcxWesvozLqYNZnE0CzimoKX
pInym7XLMzkDVZrA1Yk0Y8nkyGs67HkZZy6eyegnXnAzrd4I//VzMZ8w9qY2z6xH
9yh+uSarYDcZFczZ64awew1LwGwGLH15MAET07rZibVtTJ3lMmJVanDKbkFQxDW0
adNPjoK3SdIcoqQNLCl+oCvkpEXDHpOHceE4+KpcjsOApx4MgBYtRLaBYqJiujQ/
PM6RzFckWje+isVMx2KDiTdIhPlm1F8=
-----END CERTIFICATE-----
