Certificate:
    Data:
        Version: 3 (0x2)
        Serial Number: 3 (0x3)
        Signature Algorithm: sha256WithRSAEncryption
        Issuer: C=CN, ST=GUANGDONG, L=SHENZHEN, O=ABB, OU=OIC, CN=RootCA
        Validity
            Not Before: Apr  1 10:01:48 2023 GMT
            Not After : Mar 29 10:01:48 2033 GMT
        Subject: C=CN, ST=GUANGDONG, O=ABB, OU=OIC, CN=secondCA
        Subject Public Key Info:
            Public Key Algorithm: rsaEncryption
                RSA Public-Key: (4096 bit)
                Modulus:
                    00:b2:fc:3a:07:17:38:d3:29:fd:1c:97:06:46:04:
                    f6:0a:f6:0c:15:32:c3:f0:72:f0:a0:96:0a:b9:bd:
                    ed:d4:0b:a2:5a:1d:d5:16:7d:2a:41:9c:c5:e9:7f:
                    50:e4:cc:44:9e:f4:93:b5:10:44:27:e8:c5:93:8f:
                    53:bb:10:2a:57:ea:0f:34:db:fb:b8:1c:09:62:02:
                    3c:e8:58:72:74:54:ea:aa:36:d1:21:55:23:d1:59:
                    16:60:0b:5d:15:8e:44:1a:de:ac:6b:31:05:02:11:
                    78:bf:5a:d0:34:da:f3:b9:2f:28:41:5c:a4:01:a1:
                    23:3d:0c:76:9c:3b:6a:7d:fe:6f:f5:58:3f:dc:1b:
                    2a:5e:14:7a:34:1c:24:8b:17:ff:63:fe:3e:16:06:
                    15:06:d9:9f:f2:97:e5:62:41:b3:74:0e:5f:c0:63:
                    8c:9f:ee:77:54:6d:7b:73:cf:d8:6e:f8:85:67:a9:
                    29:a2:5c:f6:3a:75:c1:90:c4:0b:8d:e8:d5:4d:3c:
                    80:0c:03:ad:1a:a2:7d:ce:ac:00:b0:43:65:f9:dc:
                    12:89:94:2a:ce:f7:54:ce:d8:e5:f9:bd:f3:58:b6:
                    9b:fb:7c:65:f5:d1:d6:be:ed:aa:7e:29:bb:54:37:
                    77:74:f6:fb:2d:13:a1:48:eb:cd:bf:c7:65:7f:72:
                    89:1a:aa:ed:e0:4a:6a:1b:a7:2b:5d:99:0e:69:63:
                    c9:e9:04:a8:f4:e0:a3:cf:4a:7e:9e:22:66:98:14:
                    5f:84:69:a2:b5:2a:65:80:70:59:c7:3b:52:29:20:
                    07:c9:bb:63:19:1e:7e:19:38:01:d4:f2:6b:eb:47:
                    5c:4d:cb:17:a3:79:8e:67:48:2f:ae:5d:33:98:82:
                    f5:12:2d:6b:5b:24:3e:9b:8e:98:3f:b0:55:2f:43:
                    ce:a3:53:e4:7b:43:2a:70:76:94:96:cf:34:7d:32:
                    61:ef:dc:ec:b1:c9:6f:66:02:d6:30:b7:de:07:b2:
                    5c:8d:af:b4:a7:97:e0:d7:b9:9e:d5:c5:0c:dc:e1:
                    46:16:7b:23:dd:1c:cb:fe:06:a9:af:d1:36:c3:7b:
                    1f:42:4c:f5:89:82:f7:10:f1:d4:2d:4a:ee:ab:49:
                    76:a6:ce:5e:7e:9f:4f:ba:76:db:33:3d:9f:95:70:
                    9a:f1:ca:6e:6d:c4:30:73:db:49:82:6a:38:66:ce:
                    45:5e:aa:ef:bd:45:81:d4:69:b0:89:39:26:6e:be:
                    c1:ec:c7:f6:75:f4:97:ea:59:a0:3d:42:87:7b:14:
                    07:4c:35:be:26:19:09:ad:9e:db:b2:6e:26:cc:c7:
                    37:a2:9e:3f:6d:96:aa:38:81:04:d8:de:fe:ff:6b:
                    b3:a7:4d
                Exponent: 65537 (0x10001)
        X509v3 extensions:
            X509v3 Subject Key Identifier: 
                23:EC:04:C2:2D:D2:D1:9F:E7:25:DA:3D:B8:AE:6D:DF:BB:C9:B2:A6
            X509v3 Authority Key Identifier: 
                keyid:C3:AF:10:97:99:15:74:92:42:5C:72:87:E3:89:A3:9B:BD:1A:ED:D8

            X509v3 Basic Constraints: critical
                CA:TRUE
    Signature Algorithm: sha256WithRSAEncryption
         1d:c3:48:ae:42:51:b9:46:06:e1:a9:06:3d:9d:be:f8:52:00:
         50:af:d3:f2:71:0b:f1:bf:80:ef:ee:eb:4d:c8:7e:5f:89:7e:
         1b:42:25:7f:e7:b3:48:22:c3:b7:25:df:33:50:8a:c2:9d:b8:
         d9:35:6c:47:26:20:46:45:b8:42:e4:e2:44:ad:64:01:ee:6b:
         e4:62:9a:6c:25:7f:8f:ff:f6:6a:8b:56:99:b0:82:ee:88:ec:
         6d:78:99:af:67:56:72:59:47:af:d9:8c:f3:64:1d:c4:b1:86:
         c7:66:9f:94:ff:ed:2f:12:91:20:a9:55:25:f2:e1:64:fa:31:
         d6:82:77:8b:05:4d:84:1a:3d:33:a4:41:bd:0e:cc:d8:d3:2f:
         f8:a3:12:7d:90:02:61:20:27:2f:08:09:8c:2e:fa:8c:da:ea:
         ca:bd:11:3b:0b:66:b9:99:11:7b:07:a1:c1:9b:32:2c:e4:c2:
         cd:ed:fe:72:06:ae:db:b8:4b:dc:41:46:f4:5a:50:6e:2c:0f:
         fd:a7:60:e0:4c:a8:fa:92:6f:45:e2:59:a2:97:a5:3d:2b:cb:
         f1:86:3c:62:b2:0a:21:1e:43:f5:b6:20:cf:2f:20:75:19:b2:
         34:50:60:43:2b:6d:df:ed:9d:26:78:a8:66:db:00:65:9e:14:
         a3:6d:bf:ab
-----BEGIN CERTIFICATE-----
MIIEfzCCA2egAwIBAgIBAzANBgkqhkiG9w0BAQsFADBhMQswCQYDVQQGEwJDTjES
MBAGA1UECAwJR1VBTkdET05HMREwDwYDVQQHDAhTSEVOWkhFTjEMMAoGA1UECgwD
QUJCMQwwCgYDVQQLDANPSUMxDzANBgNVBAMMBlJvb3RDQTAeFw0yMzA0MDExMDAx
NDhaFw0zMzAzMjkxMDAxNDhaMFAxCzAJBgNVBAYTAkNOMRIwEAYDVQQIDAlHVUFO
R0RPTkcxDDAKBgNVBAoMA0FCQjEMMAoGA1UECwwDT0lDMREwDwYDVQQDDAhzZWNv
bmRDQTCCAiIwDQYJKoZIhvcNAQEBBQADggIPADCCAgoCggIBALL8OgcXONMp/RyX
BkYE9gr2DBUyw/By8KCWCrm97dQLolod1RZ9KkGcxel/UOTMRJ70k7UQRCfoxZOP
U7sQKlfqDzTb+7gcCWICPOhYcnRU6qo20SFVI9FZFmALXRWORBrerGsxBQIReL9a
0DTa87kvKEFcpAGhIz0Mdpw7an3+b/VYP9wbKl4UejQcJIsX/2P+PhYGFQbZn/KX
5WJBs3QOX8BjjJ/ud1Rte3PP2G74hWepKaJc9jp1wZDEC43o1U08gAwDrRqifc6s
ALBDZfncEomUKs73VM7Y5fm981i2m/t8ZfXR1r7tqn4pu1Q3d3T2+y0ToUjrzb/H
ZX9yiRqq7eBKahunK12ZDmljyekEqPTgo89Kfp4iZpgUX4RporUqZYBwWcc7Uikg
B8m7Yxkefhk4AdTya+tHXE3LF6N5jmdIL65dM5iC9RIta1skPpuOmD+wVS9DzqNT
5HtDKnB2lJbPNH0yYe/c7LHJb2YC1jC33geyXI2vtKeX4Ne5ntXFDNzhRhZ7I90c
y/4Gqa/RNsN7H0JM9YmC9xDx1C1K7qtJdqbOXn6fT7p22zM9n5VwmvHKbm3EMHPb
SYJqOGbORV6q771FgdRpsIk5Jm6+wezH9nX0l+pZoD1Ch3sUB0w1viYZCa2e27Ju
JszHN6KeP22WqjiBBNje/v9rs6dNAgMBAAGjUzBRMB0GA1UdDgQWBBQj7ATCLdLR
n+cl2j24rm3fu8mypjAfBgNVHSMEGDAWgBTDrxCXmRV0kkJccofjiaObvRrt2DAP
BgNVHRMBAf8EBTADAQH/MA0GCSqGSIb3DQEBCwUAA4IBAQAdw0iuQlG5RgbhqQY9
nb74UgBQr9PycQvxv4Dv7utNyH5fiX4bQiV/57NIIsO3Jd8zUIrCnbjZNWxHJiBG
RbhC5OJErWQB7mvkYppsJX+P//Zqi1aZsILuiOxteJmvZ1ZyWUev2YzzZB3EsYbH
Zp+U/+0vEpEgqVUl8uFk+jHWgneLBU2EGj0zpEG9DszY0y/4oxJ9kAJhICcvCAmM
LvqM2urKvRE7C2a5mRF7B6HBmzIs5MLN7f5yBq7buEvcQUb0WlBuLA/9p2DgTKj6
km9F4lmil6U9K8vxhjxisgohHkP1tiDPLyB1GbI0UGBDK23f7Z0meKhm2wBlnhSj
bb+r
-----END CERTIFICATE-----
