Certificate:
    Data:
        Version: 3 (0x2)
        Serial Number: 4 (0x4)
        Signature Algorithm: sha256WithRSAEncryption
        Issuer: ST=Shenzhen, L=Shenzhen, C=CN, O=ABB, OU=OIC, CN=ABB OIC DaaS Root CA
        Validity
            Not Before: Apr  1 10:44:02 2023 GMT
            Not After : Mar 29 10:44:02 2033 GMT
        Subject: C=CN, ST=Shenzhen, O=ABB, OU=OIC, CN=ABB OIC MSP ISSUING CA
        Subject Public Key Info:
            Public Key Algorithm: rsaEncryption
                RSA Public-Key: (4096 bit)
                Modulus:
                    00:e5:63:3d:e9:fe:75:0b:3a:ad:25:11:40:14:76:
                    7c:31:be:95:19:ab:ba:5b:0b:e0:6f:34:64:c9:62:
                    09:38:ee:8d:29:8c:f6:b0:1b:07:d3:11:76:db:ae:
                    ac:5a:53:b1:a5:a2:37:76:95:c9:12:33:b6:1a:7e:
                    b6:ba:89:d4:1c:04:d6:ff:f2:7d:a4:41:74:b0:14:
                    3c:07:e9:04:e9:9a:8d:72:45:ab:7b:9e:c3:55:dc:
                    54:e0:2d:f4:5c:fa:7e:01:c3:80:c4:bc:48:5f:be:
                    0c:d5:39:f0:6b:2e:60:8d:cd:16:17:5a:d8:1b:28:
                    b5:b2:04:9b:48:f5:c3:30:97:55:e9:d3:93:82:b4:
                    b5:5c:5a:95:24:0c:53:14:2c:2f:d4:92:07:01:e5:
                    28:c6:00:46:91:20:3a:67:47:ea:a8:ce:5d:0c:da:
                    04:f3:31:d5:c3:c6:d9:6b:1d:2b:05:c0:57:2c:d7:
                    e5:d2:c9:77:55:b4:e3:a8:59:f1:f5:55:67:b2:f3:
                    fc:2e:60:5b:9a:13:98:84:1a:f9:d0:36:ab:09:e3:
                    1c:2d:45:59:1e:ad:cc:4a:48:2f:ef:3b:ee:43:21:
                    0c:15:c8:03:b5:ef:a6:5f:27:c2:d0:81:f8:4a:6d:
                    0e:d8:8c:03:13:2f:9f:5e:85:ef:3c:34:f4:30:74:
                    0e:10:df:eb:9f:6d:3e:4d:05:11:2c:cc:78:5e:03:
                    cc:93:68:c3:52:23:38:91:d3:6b:57:70:0c:45:d4:
                    6b:1f:53:94:90:c9:cf:87:7a:2d:fa:d4:68:8a:df:
                    2c:e3:57:5f:71:6e:c6:76:57:7d:ec:d0:df:38:20:
                    99:de:15:86:c1:f0:06:eb:74:0b:7f:13:d5:29:26:
                    18:0a:0f:2b:52:4a:72:f4:14:57:cc:b1:30:26:bb:
                    42:8d:a3:6b:f4:26:44:ea:46:ce:60:22:cb:eb:d8:
                    30:3a:af:7c:41:46:94:67:2a:03:b4:ed:cc:0b:7c:
                    50:6a:d3:97:17:64:fd:2f:b9:6c:78:89:8e:a0:c8:
                    6d:69:dc:23:aa:75:bf:86:72:81:c1:83:d7:f7:bd:
                    00:ff:e6:b9:bf:05:a4:2e:7b:db:61:19:29:37:04:
                    e0:f3:75:ef:93:09:29:af:9e:66:e7:6e:76:16:42:
                    c0:8f:59:c2:5f:2e:46:97:4c:c8:a0:56:7c:31:b5:
                    f8:9d:12:28:14:8b:46:31:8c:06:61:96:1c:d4:74:
                    8b:96:74:f7:3f:ae:fd:1f:6a:4d:6a:0d:da:13:47:
                    bd:45:5b:a3:49:3b:4a:0d:01:40:fb:1e:c7:53:4d:
                    39:32:05:36:d8:e2:a6:f6:cb:bf:6a:65:40:91:e7:
                    08:a4:39
                Exponent: 65537 (0x10001)
        X509v3 extensions:
            X509v3 Subject Key Identifier: 
                1B:9D:42:68:06:AE:17:EB:07:2E:0E:B6:E0:22:94:B5:96:82:F4:62
            X509v3 Authority Key Identifier: 
                keyid:5B:C2:C8:6B:78:20:17:F6:43:21:30:A9:07:86:74:08:EF:F7:2F:65

            X509v3 Basic Constraints: critical
                CA:TRUE
    Signature Algorithm: sha256WithRSAEncryption
         24:01:5f:f3:56:a6:a0:e7:7c:fc:3c:43:9f:ac:35:c2:da:d9:
         09:9a:71:5b:38:0b:e9:5e:17:a0:07:2a:05:92:c4:80:75:0f:
         d0:43:9a:74:cf:6f:67:c1:d7:23:91:e0:91:d7:34:44:9d:2a:
         55:24:71:03:ea:3f:ad:89:d7:39:ef:6f:c1:1d:c3:60:05:49:
         fd:12:1f:2c:86:32:2d:07:52:ec:a1:37:a3:35:cb:53:67:38:
         0a:47:45:ec:5c:e3:88:40:0f:f9:c9:9b:64:92:3a:bd:8d:24:
         be:c4:84:87:31:5a:46:6f:98:62:17:23:07:a3:2c:fa:d5:1e:
         41:17:8d:6c:e3:f4:6c:f9:79:98:6c:0b:4f:c4:7e:1f:30:7a:
         eb:fc:4d:4a:70:6c:eb:d1:12:80:95:0e:e3:84:eb:21:03:23:
         82:52:49:db:5d:44:15:32:60:71:08:49:e1:ec:da:bd:29:42:
         c2:63:7e:db:66:5a:3f:bc:51:b9:16:b2:0f:8a:13:6e:a9:cc:
         70:30:63:a3:16:2e:c6:ed:c3:24:4b:aa:bf:a8:30:66:ac:1b:
         af:6a:dc:3a:0d:28:67:f1:9c:b9:d7:e7:a1:85:a6:76:c6:61:
         28:4f:78:b9:2f:71:0f:bf:9c:78:9e:71:d5:a4:6a:b0:3a:74:
         ac:98:db:32:66:ef:15:db:27:44:74:ab:46:94:fa:61:e8:b7:
         34:82:6f:fe:9e:3e:2b:93:c1:5a:1c:1b:72:6e:9f:22:e8:59:
         02:dc:c9:5e:6b:a8:8c:54:cc:22:78:59:60:ea:4f:f3:56:26:
         6e:f1:bf:ed:6c:ba:87:ab:eb:cd:55:92:27:c1:d6:4b:51:7f:
         4f:86:db:6b:0f:5e:01:4d:02:a7:ce:14:75:6b:92:f3:30:1b:
         79:35:51:9f:bf:ef:71:60:e0:34:54:8a:a4:a0:05:02:63:e9:
         26:b6:49:6f:ba:c0:20:91:5b:9a:bb:b0:8f:3c:6f:4e:18:72:
         c8:ca:e2:eb:97:c3:89:30:bb:4e:ef:3c:e5:1d:6b:b1:26:02:
         06:3a:72:40:c7:46:92:e9:51:84:d8:d7:73:ef:87:99:50:1f:
         62:37:66:c0:db:a9:88:6d:c9:97:aa:05:4a:cd:ae:7e:61:1d:
         21:db:f8:e7:3b:94:fc:77:4d:ef:af:ff:36:46:39:c8:9c:20:
         73:66:09:96:58:db:09:29:4c:02:e2:78:80:6a:db:d9:9f:1c:
         4c:1b:5d:9b:36:19:6e:e1:8b:ce:bf:8a:a1:a9:9a:98:78:cd:
         ce:03:bc:5f:1b:78:1c:81:0c:88:07:94:9a:2a:26:3b:53:57:
         a4:96:58:35:37:16:7b:bb
-----BEGIN CERTIFICATE-----
MIIFmTCCA4GgAwIBAgIBBDANBgkqhkiG9w0BAQsFADBuMREwDwYDVQQIDAhTaGVu
emhlbjERMA8GA1UEBwwIU2hlbnpoZW4xCzAJBgNVBAYTAkNOMQwwCgYDVQQKDANB
QkIxDDAKBgNVBAsMA09JQzEdMBsGA1UEAwwUQUJCIE9JQyBEYWFTIFJvb3QgQ0Ew
HhcNMjMwNDAxMTA0NDAyWhcNMzMwMzI5MTA0NDAyWjBdMQswCQYDVQQGEwJDTjER
MA8GA1UECAwIU2hlbnpoZW4xDDAKBgNVBAoMA0FCQjEMMAoGA1UECwwDT0lDMR8w
HQYDVQQDDBZBQkIgT0lDIE1TUCBJU1NVSU5HIENBMIICIjANBgkqhkiG9w0BAQEF
AAOCAg8AMIICCgKCAgEA5WM96f51CzqtJRFAFHZ8Mb6VGau6WwvgbzRkyWIJOO6N
KYz2sBsH0xF2266sWlOxpaI3dpXJEjO2Gn62uonUHATW//J9pEF0sBQ8B+kE6ZqN
ckWre57DVdxU4C30XPp+AcOAxLxIX74M1Tnway5gjc0WF1rYGyi1sgSbSPXDMJdV
6dOTgrS1XFqVJAxTFCwv1JIHAeUoxgBGkSA6Z0fqqM5dDNoE8zHVw8bZax0rBcBX
LNfl0sl3VbTjqFnx9VVnsvP8LmBbmhOYhBr50DarCeMcLUVZHq3MSkgv7zvuQyEM
FcgDte+mXyfC0IH4Sm0O2IwDEy+fXoXvPDT0MHQOEN/rn20+TQURLMx4XgPMk2jD
UiM4kdNrV3AMRdRrH1OUkMnPh3ot+tRoit8s41dfcW7Gdld97NDfOCCZ3hWGwfAG
63QLfxPVKSYYCg8rUkpy9BRXzLEwJrtCjaNr9CZE6kbOYCLL69gwOq98QUaUZyoD
tO3MC3xQatOXF2T9L7lseImOoMhtadwjqnW/hnKBwYPX970A/+a5vwWkLnvbYRkp
NwTg83Xvkwkpr55m5252FkLAj1nCXy5Gl0zIoFZ8MbX4nRIoFItGMYwGYZYc1HSL
lnT3P679H2pNag3aE0e9RVujSTtKDQFA+x7HU005MgU22OKm9su/amVAkecIpDkC
AwEAAaNTMFEwHQYDVR0OBBYEFBudQmgGrhfrBy4OtuAilLWWgvRiMB8GA1UdIwQY
MBaAFFvCyGt4IBf2QyEwqQeGdAjv9y9lMA8GA1UdEwEB/wQFMAMBAf8wDQYJKoZI
hvcNAQELBQADggIBACQBX/NWpqDnfPw8Q5+sNcLa2QmacVs4C+leF6AHKgWSxIB1
D9BDmnTPb2fB1yOR4JHXNESdKlUkcQPqP62J1znvb8Edw2AFSf0SHyyGMi0HUuyh
N6M1y1NnOApHRexc44hAD/nJm2SSOr2NJL7EhIcxWkZvmGIXIwejLPrVHkEXjWzj
9Gz5eZhsC0/Efh8weuv8TUpwbOvREoCVDuOE6yEDI4JSSdtdRBUyYHEISeHs2r0p
QsJjfttmWj+8UbkWsg+KE26pzHAwY6MWLsbtwyRLqr+oMGasG69q3DoNKGfxnLnX
56GFpnbGYShPeLkvcQ+/nHiecdWkarA6dKyY2zJm7xXbJ0R0q0aU+mHotzSCb/6e
PiuTwVocG3JunyLoWQLcyV5rqIxUzCJ4WWDqT/NWJm7xv+1suoer681VkifB1ktR
f0+G22sPXgFNAqfOFHVrkvMwG3k1UZ+/73Fg4DRUiqSgBQJj6Sa2SW+6wCCRW5q7
sI88b04YcsjK4uuXw4kwu07vPOUda7EmAgY6ckDHRpLpUYTY13Pvh5lQH2I3ZsDb
qYhtyZeqBUrNrn5hHSHb+Oc7lPx3Te+v/zZGOcicIHNmCZZY2wkpTALieIBq29mf
HEwbXZs2GW7hi86/iqGpmph4zc4DvF8beByBDIgHlJoqJjtTV6SWWDU3Fnu7
-----END CERTIFICATE-----
