Certificate:
    Data:
        Version: 3 (0x2)
        Serial Number: 5 (0x5)
        Signature Algorithm: sha256WithRSAEncryption
        Issuer: C=CN, ST=Shenzhen, O=ABB, OU=OIC, CN=ABB OIC MSP ISSUING CA
        Validity
            Not Before: Apr  1 10:44:06 2023 GMT
            Not After : Mar 29 10:44:06 2033 GMT
        Subject: C=CN, ST=Shenzhen, O=ABB, OU=OIC, CN=2333dfe1-236c-42f7-bf02-d15c0bde8358
        Subject Public Key Info:
            Public Key Algorithm: rsaEncryption
                RSA Public-Key: (4096 bit)
                Modulus:
                    00:c7:76:5e:b9:f9:3c:e8:59:38:48:cb:8e:11:28:
                    e6:f5:2c:74:41:8e:96:e4:54:7c:6c:47:37:82:dd:
                    55:1b:f2:af:1b:d1:77:42:ba:ec:91:44:91:f7:a5:
                    c0:c9:cb:8a:e1:a3:00:29:bb:e0:5f:4d:d4:61:0f:
                    92:bd:35:32:05:1e:99:fd:64:9d:3f:a6:8d:8b:d0:
                    ac:3a:e2:71:d6:e4:73:06:fa:f6:35:b0:b2:7e:7a:
                    37:d9:fd:7c:a5:d1:d5:fc:d9:d7:2c:a6:fe:aa:cc:
                    6c:c0:3b:3d:ef:7c:df:65:48:28:ed:61:ca:0f:8a:
                    02:06:0a:82:72:22:b4:95:f0:0a:88:57:08:e8:63:
                    cf:00:64:e7:ed:9a:d0:53:69:6f:bc:41:cc:ae:c7:
                    ee:d8:1d:be:6d:9c:6b:16:e9:ed:08:26:0a:7b:f1:
                    dd:69:15:fb:ca:ef:9d:05:8d:d9:66:ff:25:d1:0f:
                    2b:37:74:fa:df:9c:41:d7:7b:c3:24:1f:e7:37:85:
                    06:f3:73:63:33:8b:d0:34:bb:7f:67:72:68:3d:0b:
                    aa:e0:d5:4c:5e:f9:27:6a:fb:b9:71:6c:82:8f:c7:
                    3d:9c:31:1e:cd:9f:0a:a4:4e:a0:8f:2a:8b:42:1e:
                    a1:3f:e8:6e:88:15:6c:ec:ec:f3:ac:6d:1e:36:2f:
                    e9:9d:94:38:d9:d4:10:88:c5:f5:f5:02:be:0c:31:
                    65:c3:58:10:40:50:d2:2e:e6:e0:45:f8:75:5e:76:
                    d4:c9:83:03:04:dd:9c:47:b6:c1:f1:6e:b3:a5:0c:
                    40:93:be:f1:cd:ed:39:d9:b9:14:dd:ce:c5:79:c8:
                    66:ac:a9:dd:c8:ff:82:f9:fe:ea:5a:f9:df:8a:7e:
                    43:34:5e:9f:bc:f2:44:e3:8b:fd:20:99:98:c6:02:
                    0f:67:8d:c6:79:bb:bd:5c:4b:b2:38:4f:ff:b9:87:
                    b9:3b:c2:ac:a2:1f:1a:d9:4b:32:31:fa:f4:7f:7c:
                    d1:74:f6:74:37:64:14:42:f6:26:b6:cb:e4:d7:44:
                    90:5b:d7:b3:3d:de:61:19:58:ad:36:8f:15:21:fc:
                    f4:95:4f:93:de:95:f4:ff:a7:36:cd:6f:2a:df:75:
                    55:76:d6:f6:57:52:e9:df:50:77:d2:2a:87:e5:54:
                    3a:3d:46:62:85:72:e8:bc:c3:2f:c0:0e:08:79:ee:
                    3f:bc:8f:72:de:34:c9:f2:b1:2f:f5:68:84:a4:4b:
                    59:53:88:c4:74:f0:aa:20:f9:83:84:5d:07:67:da:
                    35:26:e8:d0:5d:59:d3:2f:a9:93:bd:4c:65:4d:73:
                    dd:91:65:4e:2d:f9:54:df:26:2a:3c:26:b8:64:7d:
                    f1:e5:33
                Exponent: 65537 (0x10001)
        X509v3 extensions:
            X509v3 Subject Key Identifier: 
                8E:E6:78:6C:AC:B4:D4:FF:2F:30:5D:80:D1:01:98:18:01:EB:4E:CC
            X509v3 Authority Key Identifier: 
                keyid:1B:9D:42:68:06:AE:17:EB:07:2E:0E:B6:E0:22:94:B5:96:82:F4:62

            X509v3 Basic Constraints: critical
                CA:TRUE
    Signature Algorithm: sha256WithRSAEncryption
         7c:fe:a7:46:b5:5d:7b:3b:e9:69:82:d8:fe:2c:31:48:7b:6d:
         d2:e4:05:20:82:9a:33:bf:4b:f8:e3:3e:ce:2b:77:c9:8b:ff:
         3d:a1:7e:56:5a:bb:e5:b7:18:2f:f0:71:62:c2:1d:38:7f:d6:
         9f:d1:f2:07:d8:c3:be:8c:43:17:e6:8c:e3:07:c5:7d:ac:89:
         31:ee:92:49:55:f8:91:6b:e6:23:9e:9b:1d:7d:8f:3c:50:d3:
         51:21:93:11:1f:17:04:82:5a:4e:b8:72:f9:5a:4a:55:ba:a0:
         b3:ad:98:0e:28:4c:ce:b3:c7:a6:d3:df:a9:bb:ea:07:c6:1f:
         24:59:c5:39:2a:d2:04:75:68:5e:0f:12:fc:7c:ed:29:50:b6:
         37:c1:f7:59:a2:a1:52:94:2a:3c:25:b5:7d:da:41:e3:82:45:
         d3:c0:10:8b:a0:59:91:81:f3:dd:cb:30:f7:7f:c9:47:96:80:
         67:26:a9:26:c4:a5:ae:9a:f2:32:a1:90:64:7e:1f:66:4b:1b:
         da:59:6c:ab:9e:59:aa:5b:d5:b6:fc:fa:89:1b:1b:12:a7:8e:
         b4:b5:3d:bb:64:bb:e3:03:dd:83:30:89:46:2a:87:21:ac:dd:
         34:04:3d:52:8c:20:86:70:7c:ce:5b:69:35:a6:fc:75:0a:c4:
         a5:76:ca:63:cb:93:c2:62:4b:ed:34:64:66:b6:85:70:d3:a1:
         6e:b7:82:f4:06:e8:c5:db:63:6b:23:04:b8:01:2f:40:04:cb:
         8a:e8:60:fd:30:70:91:86:38:49:81:22:fc:d6:ef:f3:f3:e0:
         c1:af:52:ed:91:13:10:25:61:f5:14:67:6b:60:f4:9d:fd:3d:
         06:c4:0c:e8:b5:d6:e0:cb:18:ba:26:d8:74:11:d1:88:5c:56:
         bf:33:7d:1c:75:6a:1b:99:8a:e3:70:6c:42:42:ee:66:6b:d7:
         3a:ca:1e:76:17:54:ed:2f:b6:ea:95:15:66:b6:7f:6d:32:f8:
         0e:fa:63:1c:e0:f8:f5:6d:d0:bc:74:3a:47:d8:c2:7f:e4:80:
         cd:c9:05:a6:83:33:d4:54:6c:5d:56:46:68:45:ec:e5:b3:61:
         ab:41:3f:63:34:b8:5f:a5:a1:a6:a9:58:d1:d7:b4:a5:46:92:
         a9:33:01:f8:60:d9:7c:48:29:08:c3:a8:dd:be:77:8f:36:9a:
         f1:2a:e4:bc:b5:85:84:f0:b9:96:ad:e2:2f:cd:01:dd:06:73:
         5f:a2:c7:5f:b0:21:20:52:e2:f5:cb:56:30:25:0e:4e:df:e0:
         3a:71:39:2f:d9:f2:b0:71:c9:b5:93:c0:76:0c:55:49:87:88:
         c9:d6:b9:d0:69:e4:c9:fc
-----BEGIN CERTIFICATE-----
MIIFljCCA36gAwIBAgIBBTANBgkqhkiG9w0BAQsFADBdMQswCQYDVQQGEwJDTjER
MA8GA1UECAwIU2hlbnpoZW4xDDAKBgNVBAoMA0FCQjEMMAoGA1UECwwDT0lDMR8w
HQYDVQQDDBZBQkIgT0lDIE1TUCBJU1NVSU5HIENBMB4XDTIzMDQwMTEwNDQwNloX
DTMzMDMyOTEwNDQwNlowazELMAkGA1UEBhMCQ04xETAPBgNVBAgMCFNoZW56aGVu
MQwwCgYDVQQKDANBQkIxDDAKBgNVBAsMA09JQzEtMCsGA1UEAwwkMjMzM2RmZTEt
MjM2Yy00MmY3LWJmMDItZDE1YzBiZGU4MzU4MIICIjANBgkqhkiG9w0BAQEFAAOC
Ag8AMIICCgKCAgEAx3Zeufk86Fk4SMuOESjm9Sx0QY6W5FR8bEc3gt1VG/KvG9F3
QrrskUSR96XAycuK4aMAKbvgX03UYQ+SvTUyBR6Z/WSdP6aNi9CsOuJx1uRzBvr2
NbCyfno32f18pdHV/NnXLKb+qsxswDs973zfZUgo7WHKD4oCBgqCciK0lfAKiFcI
6GPPAGTn7ZrQU2lvvEHMrsfu2B2+bZxrFuntCCYKe/HdaRX7yu+dBY3ZZv8l0Q8r
N3T635xB13vDJB/nN4UG83NjM4vQNLt/Z3JoPQuq4NVMXvknavu5cWyCj8c9nDEe
zZ8KpE6gjyqLQh6hP+huiBVs7OzzrG0eNi/pnZQ42dQQiMX19QK+DDFlw1gQQFDS
LubgRfh1XnbUyYMDBN2cR7bB8W6zpQxAk77xze052bkU3c7FechmrKndyP+C+f7q
Wvnfin5DNF6fvPJE44v9IJmYxgIPZ43Gebu9XEuyOE//uYe5O8Ksoh8a2UsyMfr0
f3zRdPZ0N2QUQvYmtsvk10SQW9ezPd5hGVitNo8VIfz0lU+T3pX0/6c2zW8q33VV
dtb2V1Lp31B30iqH5VQ6PUZihXLovMMvwA4Iee4/vI9y3jTJ8rEv9WiEpEtZU4jE
dPCqIPmDhF0HZ9o1JujQXVnTL6mTvUxlTXPdkWVOLflU3yYqPCa4ZH3x5TMCAwEA
AaNTMFEwHQYDVR0OBBYEFI7meGystNT/LzBdgNEBmBgB607MMB8GA1UdIwQYMBaA
FBudQmgGrhfrBy4OtuAilLWWgvRiMA8GA1UdEwEB/wQFMAMBAf8wDQYJKoZIhvcN
AQELBQADggIBAHz+p0a1XXs76WmC2P4sMUh7bdLkBSCCmjO/S/jjPs4rd8mL/z2h
flZau+W3GC/wcWLCHTh/1p/R8gfYw76MQxfmjOMHxX2siTHukklV+JFr5iOemx19
jzxQ01EhkxEfFwSCWk64cvlaSlW6oLOtmA4oTM6zx6bT36m76gfGHyRZxTkq0gR1
aF4PEvx87SlQtjfB91mioVKUKjwltX3aQeOCRdPAEIugWZGB893LMPd/yUeWgGcm
qSbEpa6a8jKhkGR+H2ZLG9pZbKueWapb1bb8+okbGxKnjrS1Pbtku+MD3YMwiUYq
hyGs3TQEPVKMIIZwfM5baTWm/HUKxKV2ymPLk8JiS+00ZGa2hXDToW63gvQG6MXb
Y2sjBLgBL0AEy4roYP0wcJGGOEmBIvzW7/Pz4MGvUu2RExAlYfUUZ2tg9J39PQbE
DOi11uDLGLom2HQR0YhcVr8zfRx1ahuZiuNwbEJC7mZr1zrKHnYXVO0vtuqVFWa2
f20y+A76Yxzg+PVt0Lx0OkfYwn/kgM3JBaaDM9RUbF1WRmhF7OWzYatBP2M0uF+l
oaapWNHXtKVGkqkzAfhg2XxIKQjDqN2+d482mvEq5Ly1hYTwuZat4i/NAd0Gc1+i
x1+wISBS4vXLVjAlDk7f4DpxOS/Z8rBxybWTwHYMVUmHiMnWudBp5Mn8
-----END CERTIFICATE-----
